#include <math.h>
#include <stdio.h>
#include <stdlib.h>
#include <string.h>

int main()
{
	int A[100][100];
	int n,i,j,a,b,p,q,r;	
	scanf("%d",&n);
	for(i=0;i<n;i++)for(j=0;j<n;j++)scanf("%d",&A[i][j]);
	for(i=0;i<n;i++){for(j=0;j<n;j++){if(A[i][j]==255&&A[i][j-1]==255&&A[i-1][j]==0){a=i;b=j;}}}
	for(i=0;i<n;i++){for(j=0;j<n;j++){if(A[i][j]==0&&A[i][j-1]==255){p=i;q=j;i=n;j=n;}}}
	r=(a-p-2)*(b-q-1);printf("%d\n",r);
	return 0;
}
